ccopy_reg
_reconstructor
p0
(cargparse
Namespace
p1
c__builtin__
object
p2
Ntp3
Rp4
(dp5
S'grad_clip'
p6
F10.0
sS'latent_size'
p7
I128
sS'rnn_size'
p8
I512
sS'embedding_size'
p9
I64
sS'grid_size'
p10
I4
sS'max_num_obj'
p11
I60
sS'e_dim'
p12
I256
sS'learning_rate'
p13
F0.005
sS'num_layers'
p14
I1
sS'seq_length'
p15
I8
sS'decay_rate'
p16
F0.95
sS'd_dim'
p17
I16
sS'batch_size'
p18
I10
sS'leave_dataset'
p19
I5
sS'num_epochs'
p20
I100
sS'model'
p21
S'gru'
p22
sS'stride'
p23
I1
sS'save_every'
p24
I400
sS'keep_prob'
p25
F0.8
sS'neighborhood_size'
p26
I32
sb.